target datalayout = "e-m:e-p270:32:32-p271:32:32-p272:64:64-i64:64-i128:128-f80:128-n8:16:32:64-S128"
target triple = "x86_64-pc-linux-gnu"

%"class.std::__cxx11::basic_string" = type { %"struct.std::__cxx11::basic_string<char>::_Alloc_hider", i64, %union.anon }
%"struct.std::__cxx11::basic_string<char>::_Alloc_hider" = type { ptr }
%union.anon = type { i64, [8 x i8] }
%"class.std::vector" = type { %"struct.std::_Vector_base" }
%"struct.std::_Vector_base" = type { %"struct.std::_Vector_base<std::__cxx11::basic_string<char>, std::allocator<std::__cxx11::basic_string<char>>>::_Vector_impl" }
%"struct.std::_Vector_base<std::__cxx11::basic_string<char>, std::allocator<std::__cxx11::basic_string<char>>>::_Vector_impl" = type { %"struct.std::_Vector_base<std::__cxx11::basic_string<char>, std::allocator<std::__cxx11::basic_string<char>>>::_Vector_impl_data" }
%"struct.std::_Vector_base<std::__cxx11::basic_string<char>, std::allocator<std::__cxx11::basic_string<char>>>::_Vector_impl_data" = type { ptr, ptr, ptr }
%"struct.Json::BuiltStyledStreamWriter" = type <{ %"class.Json::StreamWriter", %"class.std::vector", %"class.std::__cxx11::basic_string", i32, [4 x i8], %"class.std::__cxx11::basic_string", i32, [4 x i8], %"class.std::__cxx11::basic_string", %"class.std::__cxx11::basic_string", %"class.std::__cxx11::basic_string", i8, [3 x i8], i32, i32, [4 x i8] }>
%"class.Json::StreamWriter" = type { ptr, ptr }

@_ZTVN4Json12StreamWriterE = dso_local unnamed_addr constant { [5 x ptr] } { [5 x ptr] [ptr null, ptr @_ZTIN4Json12StreamWriterE, ptr @_ZN4Json12StreamWriterD1Ev, ptr @_ZN4Json12StreamWriterD0Ev, ptr @__cxa_pure_virtual] }, align 8

; Function Attrs: mustprogress nounwind uwtable
define linkonce_odr dso_local void @_ZNSt15__new_allocatorINSt7__cxx1112basic_stringIcSt11char_traitsIcESaIcEEEEC2Ev(ptr noundef nonnull align 1 dereferenceable(1) %0) unnamed_addr #1 comdat align 2 {
  %2 = alloca ptr, align 8
  store ptr %0, ptr %2, align 8
  ret void
}

; Function Attrs: mustprogress nounwind uwtable
define linkonce_odr dso_local void @_ZNSt12_Vector_baseINSt7__cxx1112basic_stringIcSt11char_traitsIcESaIcEEESaIS5_EE17_Vector_impl_dataC2Ev(ptr noundef nonnull align 8 dereferenceable(24) %0) unnamed_addr #1 comdat align 2 {
  %2 = alloca ptr, align 8
  store ptr %0, ptr %2, align 8
  %3 = load ptr, ptr %2, align 8
  %4 = getelementptr inbounds %"struct.std::_Vector_base<std::__cxx11::basic_string<char>, std::allocator<std::__cxx11::basic_string<char>>>::_Vector_impl_data", ptr %3, i32 0, i32 0
  store ptr null, ptr %4, align 8
  %5 = getelementptr inbounds %"struct.std::_Vector_base<std::__cxx11::basic_string<char>, std::allocator<std::__cxx11::basic_string<char>>>::_Vector_impl_data", ptr %3, i32 0, i32 1
  store ptr null, ptr %5, align 8
  %6 = getelementptr inbounds %"struct.std::_Vector_base<std::__cxx11::basic_string<char>, std::allocator<std::__cxx11::basic_string<char>>>::_Vector_impl_data", ptr %3, i32 0, i32 2
  store ptr null, ptr %6, align 8
  ret void
}

; Function Attrs: mustprogress nounwind uwtable
define linkonce_odr dso_local void @_ZNSaINSt7__cxx1112basic_stringIcSt11char_traitsIcESaIcEEEEC2Ev(ptr noundef nonnull align 1 dereferenceable(1) %0) unnamed_addr #1 comdat align 2 {
  %2 = alloca ptr, align 8
  store ptr %0, ptr %2, align 8
  %3 = load ptr, ptr %2, align 8
  call void @_ZNSt15__new_allocatorINSt7__cxx1112basic_stringIcSt11char_traitsIcESaIcEEEEC2Ev(ptr noundef nonnull align 1 dereferenceable(1) %3) #9
  ret void
}

; Function Attrs: mustprogress nounwind uwtable
define linkonce_odr dso_local void @_ZNSt12_Vector_baseINSt7__cxx1112basic_stringIcSt11char_traitsIcESaIcEEESaIS5_EE12_Vector_implC2Ev(ptr noundef nonnull align 8 dereferenceable(24) %0) unnamed_addr #1 comdat align 2 {
  %2 = alloca ptr, align 8
  store ptr %0, ptr %2, align 8
  %3 = load ptr, ptr %2, align 8
  call void @_ZNSaINSt7__cxx1112basic_stringIcSt11char_traitsIcESaIcEEEEC2Ev(ptr noundef nonnull align 1 dereferenceable(1) %3) #9
  call void @_ZNSt12_Vector_baseINSt7__cxx1112basic_stringIcSt11char_traitsIcESaIcEEESaIS5_EE17_Vector_impl_dataC2Ev(ptr noundef nonnull align 8 dereferenceable(24) %3) #9
  ret void
}

; Function Attrs: mustprogress nounwind uwtable
define linkonce_odr dso_local void @_ZNSt12_Vector_baseINSt7__cxx1112basic_stringIcSt11char_traitsIcESaIcEEESaIS5_EEC2Ev(ptr noundef nonnull align 8 dereferenceable(24) %0) unnamed_addr #1 comdat align 2 {
  %2 = alloca ptr, align 8
  store ptr %0, ptr %2, align 8
  %3 = load ptr, ptr %2, align 8
  %4 = getelementptr inbounds %"struct.std::_Vector_base", ptr %3, i32 0, i32 0
  call void @_ZNSt12_Vector_baseINSt7__cxx1112basic_stringIcSt11char_traitsIcESaIcEEESaIS5_EE12_Vector_implC2Ev(ptr noundef nonnull align 8 dereferenceable(24) %4) #9
  ret void
}

; Function Attrs: mustprogress nounwind uwtable
define linkonce_odr dso_local void @_ZNSt6vectorINSt7__cxx1112basic_stringIcSt11char_traitsIcESaIcEEESaIS5_EEC2Ev(ptr noundef nonnull align 8 dereferenceable(24) %0) unnamed_addr #1 comdat align 2 {
  %2 = alloca ptr, align 8
  store ptr %0, ptr %2, align 8
  %3 = load ptr, ptr %2, align 8
  call void @_ZNSt12_Vector_baseINSt7__cxx1112basic_stringIcSt11char_traitsIcESaIcEEESaIS5_EEC2Ev(ptr noundef nonnull align 8 dereferenceable(24) %3) #9
  ret void
}

; Function Attrs: mustprogress nounwind uwtable
define dso_local void @_ZN4Json12StreamWriterC2Ev(ptr noundef nonnull align 8 dereferenceable(16) %0) unnamed_addr #1 align 2 {
  %2 = alloca ptr, align 8
  store ptr %0, ptr %2, align 8
  %3 = load ptr, ptr %2, align 8
  store ptr getelementptr inbounds ({ [5 x ptr] }, ptr @_ZTVN4Json12StreamWriterE, i32 0, i32 0, i32 2), ptr %3, align 8
  %4 = getelementptr inbounds %"class.Json::StreamWriter", ptr %3, i32 0, i32 1
  store ptr null, ptr %4, align 8
  ret void
}

; Function Attrs: mustprogress uwtable
define dso_local void @_ZN4Json23BuiltStyledStreamWriterC2ENSt7__cxx1112basic_stringIcSt11char_traitsIcESaIcEEENS_12CommentStyle4EnumES6_S6_S6_bbjNS_13PrecisionTypeE(ptr noundef nonnull align 8 dereferenceable(228) %0, ptr noundef %1, i32 noundef %2, ptr noundef %3, ptr noundef %4, ptr noundef %5, i1 noundef zeroext %6, i1 noundef zeroext %7, i32 noundef %8, i32 noundef %9) unnamed_addr #0 align 2 {
  %11 = alloca ptr, align 8
  %12 = alloca ptr, align 8
  %13 = alloca i32, align 4
  %14 = alloca ptr, align 8
  %15 = alloca ptr, align 8
  %16 = alloca ptr, align 8
  %17 = alloca i8, align 1
  %18 = alloca i8, align 1
  %19 = alloca i32, align 4
  %20 = alloca i32, align 4
  store ptr %0, ptr %11, align 8
  store ptr %1, ptr %12, align 8
  store i32 %2, ptr %13, align 4
  store ptr %3, ptr %14, align 8
  store ptr %4, ptr %15, align 8
  store ptr %5, ptr %16, align 8
  %21 = zext i1 %6 to i8
  store i8 %21, ptr %17, align 1
  %22 = zext i1 %7 to i8
  store i8 %22, ptr %18, align 1
  store i32 %8, ptr %19, align 4
  store i32 %9, ptr %20, align 4
  %23 = load ptr, ptr %11, align 8
  call void @_ZN4Json12StreamWriterC2Ev(ptr noundef nonnull align 8 dereferenceable(16) %23)
  store ptr getelementptr inbounds ({ [5 x ptr] }, ptr @_ZTVN4Json23BuiltStyledStreamWriterE, i32 0, i32 0, i32 2), ptr %23, align 8
  %24 = getelementptr inbounds %"struct.Json::BuiltStyledStreamWriter", ptr %23, i32 0, i32 1
  call void @_ZNSt6vectorINSt7__cxx1112basic_stringIcSt11char_traitsIcESaIcEEESaIS5_EEC2Ev(ptr noundef nonnull align 8 dereferenceable(24) %24) #9
  %25 = getelementptr inbounds %"struct.Json::BuiltStyledStreamWriter", ptr %23, i32 0, i32 2
  call void @_ZNSt7__cxx1112basic_stringIcSt11char_traitsIcESaIcEEC1Ev(ptr noundef nonnull align 8 dereferenceable(32) %25) #9
  %26 = getelementptr inbounds %"struct.Json::BuiltStyledStreamWriter", ptr %23, i32 0, i32 3
  store i32 74, ptr %26, align 8
  %27 = getelementptr inbounds %"struct.Json::BuiltStyledStreamWriter", ptr %23, i32 0, i32 5
  call void @_ZNSt7__cxx1112basic_stringIcSt11char_traitsIcESaIcEEC1EOS4_(ptr noundef nonnull align 8 dereferenceable(32) %27, ptr noundef nonnull align 8 dereferenceable(32) %1) #9
  %28 = getelementptr inbounds %"struct.Json::BuiltStyledStreamWriter", ptr %23, i32 0, i32 6
  %29 = load i32, ptr %13, align 4
  store i32 %29, ptr %28, align 8
  %30 = getelementptr inbounds %"struct.Json::BuiltStyledStreamWriter", ptr %23, i32 0, i32 8
  call void @_ZNSt7__cxx1112basic_stringIcSt11char_traitsIcESaIcEEC1EOS4_(ptr noundef nonnull align 8 dereferenceable(32) %30, ptr noundef nonnull align 8 dereferenceable(32) %3) #9
  %31 = getelementptr inbounds %"struct.Json::BuiltStyledStreamWriter", ptr %23, i32 0, i32 9
  call void @_ZNSt7__cxx1112basic_stringIcSt11char_traitsIcESaIcEEC1EOS4_(ptr noundef nonnull align 8 dereferenceable(32) %31, ptr noundef nonnull align 8 dereferenceable(32) %4) #9
  %32 = getelementptr inbounds %"struct.Json::BuiltStyledStreamWriter", ptr %23, i32 0, i32 10
  call void @_ZNSt7__cxx1112basic_stringIcSt11char_traitsIcESaIcEEC1EOS4_(ptr noundef nonnull align 8 dereferenceable(32) %32, ptr noundef nonnull align 8 dereferenceable(32) %5) #9
  %33 = getelementptr inbounds %"struct.Json::BuiltStyledStreamWriter", ptr %23, i32 0, i32 11
  %34 = load i8, ptr %33, align 8
  %35 = and i8 %34, -2
  %36 = or i8 %35, 0
  store i8 %36, ptr %33, align 8
  %37 = getelementptr inbounds %"struct.Json::BuiltStyledStreamWriter", ptr %23, i32 0, i32 11
  %38 = load i8, ptr %37, align 8
  %39 = and i8 %38, -3
  %40 = or i8 %39, 0
  store i8 %40, ptr %37, align 8
  %41 = getelementptr inbounds %"struct.Json::BuiltStyledStreamWriter", ptr %23, i32 0, i32 11
  %42 = load i8, ptr %17, align 1
  %43 = trunc i8 %42 to i1
  %44 = zext i1 %43 to i8
  %45 = load i8, ptr %41, align 8
  %46 = shl i8 %44, 2
  %47 = and i8 %45, -5
  %48 = or i8 %47, %46
  store i8 %48, ptr %41, align 8
  %49 = getelementptr inbounds %"struct.Json::BuiltStyledStreamWriter", ptr %23, i32 0, i32 11
  %50 = load i8, ptr %18, align 1
  %51 = trunc i8 %50 to i1
  %52 = zext i1 %51 to i8
  %53 = load i8, ptr %49, align 8
  %54 = shl i8 %52, 3
  %55 = and i8 %53, -9
  %56 = or i8 %55, %54
  store i8 %56, ptr %49, align 8
  %57 = getelementptr inbounds %"struct.Json::BuiltStyledStreamWriter", ptr %23, i32 0, i32 13
  %58 = load i32, ptr %19, align 4
  store i32 %58, ptr %57, align 4
  %59 = getelementptr inbounds %"struct.Json::BuiltStyledStreamWriter", ptr %23, i32 0, i32 14
  %60 = load i32, ptr %20, align 4
  store i32 %60, ptr %59, align 8
  ret void
}