; Function Attrs: mustprogress nounwind uwtable
define dso_local void @_ZN4Json23BuiltStyledStreamWriterC2ENSt7__cxx1112basic_stringIcSt11char_traitsIcESaIcEEENS_12CommentStyle4EnumES6_S6_S6_bbjNS_13PrecisionTypeE(ptr noundef nonnull align 8 dereferenceable(228) %0, ptr noundef %1, i32 noundef %2, ptr noundef %3, ptr noundef %4, ptr noundef %5, i1 noundef zeroext %6, i1 noundef zeroext %7, i32 noundef %8, i32 noundef %9) unnamed_addr #6 align 2 {
  %11 = getelementptr inbounds i8, ptr %0, i64 8
  store ptr null, ptr %11, align 8
  store ptr getelementptr inbounds ({ [5 x ptr] }, ptr @_ZTVN4Json23BuiltStyledStreamWriterE, i64 0, i32 0, i64 2), ptr %0, align 8
  %12 = getelementptr inbounds i8, ptr %0, i64 16
  tail call void @llvm.memset.p0.i64(ptr noundef nonnull align 8 dereferenceable(24) %12, i8 0, i64 24, i1 false)
  %13 = getelementptr inbounds i8, ptr %0, i64 40
  tail call void @_ZNSt7__cxx1112basic_stringIcSt11char_traitsIcESaIcEEC1Ev(ptr noundef nonnull align 8 dereferenceable(32) %13) #19
  %14 = getelementptr inbounds i8, ptr %0, i64 72
  store i32 74, ptr %14, align 8
  %15 = getelementptr inbounds i8, ptr %0, i64 80
  tail call void @_ZNSt7__cxx1112basic_stringIcSt11char_traitsIcESaIcEEC1EOS4_(ptr noundef nonnull align 8 dereferenceable(32) %15, ptr noundef nonnull align 8 dereferenceable(32) %1) #19
  %16 = getelementptr inbounds i8, ptr %0, i64 112
  store i32 %2, ptr %16, align 8
  %17 = getelementptr inbounds i8, ptr %0, i64 120
  tail call void @_ZNSt7__cxx1112basic_stringIcSt11char_traitsIcESaIcEEC1EOS4_(ptr noundef nonnull align 8 dereferenceable(32) %17, ptr noundef nonnull align 8 dereferenceable(32) %3) #19
  %18 = getelementptr inbounds i8, ptr %0, i64 152
  tail call void @_ZNSt7__cxx1112basic_stringIcSt11char_traitsIcESaIcEEC1EOS4_(ptr noundef nonnull align 8 dereferenceable(32) %18, ptr noundef nonnull align 8 dereferenceable(32) %4) #19
  %19 = getelementptr inbounds i8, ptr %0, i64 184
  tail call void @_ZNSt7__cxx1112basic_stringIcSt11char_traitsIcESaIcEEC1EOS4_(ptr noundef nonnull align 8 dereferenceable(32) %19, ptr noundef nonnull align 8 dereferenceable(32) %5) #19
  %20 = getelementptr inbounds i8, ptr %0, i64 216
  %21 = load i8, ptr %20, align 8
  %22 = select i1 %6, i8 4, i8 0
  %23 = and i8 %21, -16
  %24 = select i1 %7, i8 8, i8 0
  %25 = or disjoint i8 %24, %22
  %26 = or disjoint i8 %25, %23
  store i8 %26, ptr %20, align 8
  %27 = getelementptr inbounds i8, ptr %0, i64 220
  store i32 %8, ptr %27, align 4
  %28 = getelementptr inbounds i8, ptr %0, i64 224
  store i32 %9, ptr %28, align 8
  ret void
}